c__builtin__
set
p1
((lp2
Vhttps://baike.baidu.com/item/%E5%B0%BC%E6%A0%BC%E4%B9%B0%E6%8F%90%C2%B7%E7%83%AD%E5%90%88%E6%9B%BC
p3
aVhttps://baike.baidu.com/item/%E8%90%A8%E6%BB%A1%E6%95%99
p4
aVhttps://baike.baidu.com/item/%E5%B7%B4%E7%BD%97%E6%8F%90%E8%8A%82
p5
aVhttps://baike.baidu.com/item/%E5%8D%97%E5%85%85%E5%B8%82
p6
aVhttps://baike.baidu.com/item/%E5%BC%A0%E9%98%B3%E9%98%B3
p7
aVhttps://baike.baidu.com/item/%E5%9C%B0%E4%B8%8B%E5%BE%84%E6%B5%81
p8
aVhttps://baike.baidu.com/item/%E4%BA%8C%E7%B1%BB%E5%8F%A3%E5%B2%B8
p9
aVhttps://baike.baidu.com/item/%E6%96%B0%E7%96%86%E5%86%9C%E4%B8%9A%E5%A4%A7%E5%AD%A6%E9%99%84%E5%B1%9E%E4%B8%AD%E5%AD%A6
p10
aVhttps://baike.baidu.com/item/%E6%97%85%E5%AE%A2%E5%90%9E%E5%90%90%E9%87%8F
p11
aVhttps://baike.baidu.com/item/%E8%8A%92%E7%A1%9D
p12
aVhttps://baike.baidu.com/item/%E9%98%BF%E5%85%8B%E8%8B%8F%E8%8B%B9%E6%9E%9C
p13
aVhttps://baike.baidu.com/item/%E5%85%A8%E5%9B%BD%E6%96%87%E6%98%8E%E5%9F%8E%E5%B8%82
p14
aVhttps://baike.baidu.com/item/%E5%86%85%E9%99%86%E6%B2%B3
p15
aVhttps://baike.baidu.com/item/%E5%B9%BF%E5%8F%91%E9%93%B6%E8%A1%8C
p16
aVhttps://baike.baidu.com/item/%E4%B9%8C%E9%B2%81%E6%9C%A8%E9%BD%90%E9%9F%B3%E8%84%89%E7%8B%AC%E8%A7%92%E5%85%BD%E6%96%87%E5%8C%96%E4%BC%A0%E6%92%AD%E6%9C%89%E9%99%90%E5%85%AC%E5%8F%B8
p17
aVhttps://baike.baidu.com/item/%E5%B7%B4%E6%B7%A1%E5%B8%82
p18
aVhttps://baike.baidu.com/item/%E5%86%9B%E5%8C%BA
p19
aVhttps://baike.baidu.com/item/%E5%AE%89%E5%BE%81%E5%AE%87
p20
aVhttps://baike.baidu.com/item/%E6%B2%B9%E5%A1%94%E5%AD%90
p21
aVhttps://baike.baidu.com/item/%E5%86%9B%E5%8C%BA%E6%80%BB%E5%8C%BB%E9%99%A2
p22
aVhttps://baike.baidu.com/item/%E6%96%B0%E7%96%86%E5%AE%9E%E9%AA%8C%E4%B8%AD%E5%AD%A6
p23
aVhttps://baike.baidu.com/item/%E4%B8%9C%E6%B2%9F%E4%B9%A1/2021651
p24
aVhttps://baike.baidu.com/item/%E5%9B%BD%E5%AE%B6%E6%B0%91%E8%88%AA%E6%80%BB%E5%B1%80
p25
aVhttps://baike.baidu.com/item/%E8%BF%AA%E5%8C%96%E5%BA%9C
p26
aVhttps://baike.baidu.com/item/%E8%A5%BF%E5%8C%97%E5%86%9B%E5%8C%BA
p27
aVhttps://baike.baidu.com/item/%E4%B8%9D%E7%BB%B8%E4%B9%8B%E8%B7%AF/434
p28
aVhttps://baike.baidu.com/item/%E7%9B%90%E6%B1%A0
p29
aVhttps://baike.baidu.com/item/%E5%9B%BD%E9%99%85%E5%A4%A7%E5%B7%B4%E6%89%8E
p30
aVhttps://baike.baidu.com/item/%E6%96%B0%E7%96%86%E5%8C%BB%E7%A7%91%E5%A4%A7%E5%AD%A6%E7%AC%AC%E4%B8%80%E9%99%84%E5%B1%9E%E5%8C%BB%E9%99%A2
p31
aVhttps://baike.baidu.com/item/%E8%BF%AA%E5%8C%96%E5%B7%9E
p32
aVhttps://baike.baidu.com/item/%E4%B8%80%E7%B1%BB%E5%8F%A3%E5%B2%B8
p33
aVhttps://baike.baidu.com/item/%E9%98%BF%E8%83%B6
p34
aVhttps://baike.baidu.com/item/%E9%BB%91%E9%B9%B3
p35
aVhttps://baike.baidu.com/item/%E4%B9%8C%E9%B2%81%E6%9C%A8%E9%BD%90%E5%85%AB%E4%B8%80%E4%B8%AD%E5%AD%A6
p36
aVhttps://baike.baidu.com/item/%E6%96%B0%E7%96%86%E5%B8%88%E8%8C%83%E5%A4%A7%E5%AD%A6%E9%99%84%E5%B1%9E%E4%B8%AD%E5%AD%A6
p37
aVhttps://baike.baidu.com/item/%E5%A1%94%E5%A1%94%E5%B0%94
p38
aVhttps://baike.baidu.com/item/%E5%B7%B4%E5%93%88%E7%89%B9%C2%B7%E4%BD%95%E5%BE%B7%E5%B0%94%E6%8B%9C
p39
aVhttps://baike.baidu.com/item/%E9%98%BF%E6%96%AF%E5%A1%94%E7%BA%B3
p40
aVhttps://baike.baidu.com/item/%E6%88%90%E9%83%BD%E5%B8%82
p41
aVhttps://baike.baidu.com/item/%E4%B8%AD%E5%9B%BD%E9%93%B6%E8%A1%8C
p42
aVhttps://baike.baidu.com/item/%E4%B9%8C%E9%B2%81%E6%9C%A8%E9%BD%90%E5%B8%82%E7%AC%AC%E5%8D%81%E4%B8%89%E4%B8%AD%E5%AD%A6
p43
aVhttps://baike.baidu.com/item/%E7%8E%8B%E5%AE%8F%E4%BC%9F
p44
aVhttps://baike.baidu.com/item/%E6%A3%AE%E6%9E%97%E8%A6%86%E7%9B%96%E7%8E%87
p45
aVhttps://baike.baidu.com/item/%E9%95%BF%E6%B1%9F
p46
aVhttps://baike.baidu.com/item/%E4%B8%AD%E5%9B%BD%E4%BA%BA%E6%B0%91%E8%A7%A3%E6%94%BE%E5%86%9B%E6%96%B0%E7%96%86%E5%86%9B%E5%8C%BA
p47
aVhttps://baike.baidu.com/item/%E6%B8%AF%E6%BE%B3%E5%8F%B0
p48
aVhttps://baike.baidu.com/item/%E5%96%80%E5%B8%83%E5%B0%94
p49
aVhttps://baike.baidu.com/item/%E5%BC%A0%E5%AE%B6%E5%8F%A3%E5%B8%82
p50
aVhttps://baike.baidu.com/item/%E8%A2%81%E5%AE%9D%E6%96%B0
p51
aVhttps://baike.baidu.com/item/%E8%BD%A6%E5%B8%88%E5%90%8E%E5%9B%BD
p52
aVhttps://baike.baidu.com/item/%E4%B9%8C%E9%B2%81%E6%9C%A8%E9%BD%90%E5%B8%82%E7%AC%AC%E5%8D%81%E4%B8%AD%E5%AD%A6
p53
aVhttps://baike.baidu.com/item/%E6%98%8E%E5%9B%AD
p54
aVhttps://baike.baidu.com/item/%E7%83%A4%E5%85%A8%E7%BE%8A
p55
aVhttps://baike.baidu.com/item/%E5%9C%B0%E8%A1%A8%E5%BE%84%E6%B5%81
p56
aVhttps://baike.baidu.com/item/%E9%87%8E%E8%8B%9C%E8%93%BF
p57
aVhttps://baike.baidu.com/item/%E6%97%A9%E7%86%9F%E7%A6%BE
p58
aVhttps://baike.baidu.com/item/%E5%BA%93%E8%BD%A6%E5%B0%8F%E7%99%BD%E6%9D%8F
p59
aVhttps://baike.baidu.com/item/%E4%BA%8E%E6%9C%A6%E8%83%A7
p60
aVhttps://baike.baidu.com/item/%E4%B8%AD%E5%9B%BD%E7%94%B7%E5%AD%90%E7%AF%AE%E7%90%83%E8%81%8C%E4%B8%9A%E8%81%94%E8%B5%9B
p61
aVhttps://baike.baidu.com/item/%E5%8D%81%E4%BA%8C%E6%9C%A8%E5%8D%A1%E5%A7%86
p62
aVhttps://baike.baidu.com/item/%E9%87%8E%E5%85%94
p63
aVhttps://baike.baidu.com/item/%E9%85%92%E6%B3%89%E5%B8%82
p64
aVhttps://baike.baidu.com/item/%E6%9D%9C%E5%B3%B0
p65
aVhttps://baike.baidu.com/item/%E7%81%B0%E6%97%B1%E7%8D%AD
p66
aVhttps://baike.baidu.com/item/%E7%81%AB%E8%BD%A6%E5%8D%97%E7%AB%99
p67
aVhttps://baike.baidu.com/item/%E4%B8%9C%E4%BA%9A%E9%93%B6%E8%A1%8C
p68
aVhttps://baike.baidu.com/item/%E5%B7%A5%E5%95%86%E9%93%B6%E8%A1%8C
p69
aVhttps://baike.baidu.com/item/%E5%A1%94%E9%87%8C%E6%9C%A8%E6%B2%B9%E7%94%B0
p70
aVhttps://baike.baidu.com/item/%E7%BB%B4%E5%A6%AE%E5%A8%9C
p71
aVhttps://baike.baidu.com/item/%E5%A5%A5%E5%8B%92%E5%A7%86%E5%B8%82
p72
aVhttps://baike.baidu.com/item/%E8%BF%9B%E5%87%BA%E5%8F%A3%E8%B4%B8%E6%98%93
p73
aVhttps://baike.baidu.com/item/%E6%BC%A0%E8%A5%BF%E8%92%99%E5%8F%A4
p74
aVhttps://baike.baidu.com/item/%E5%B0%94
p75
aVhttps://baike.baidu.com/item/%E5%86%9C%E4%B8%9A%E9%93%B6%E8%A1%8C
p76
aVhttps://baike.baidu.com/item/%E7%9F%B3%E5%AE%B6%E5%BA%84%E5%B8%82
p77
aVhttps://baike.baidu.com/item/%E6%83%A0%E6%99%AE
p78
aVhttps://baike.baidu.com/item/%E5%9B%BD%E5%AE%B6%E5%9B%AD%E6%9E%97%E5%9F%8E%E5%B8%82
p79
aVhttps://baike.baidu.com/item/%E4%B9%8C%E9%B2%81%E6%9C%A8%E9%BD%90%E5%B8%82%E7%AC%AC%E4%B8%80%E4%B8%AD%E5%AD%A6
p80
aVhttps://baike.baidu.com/item/%E9%A9%AC%E7%82%9C
p81
aVhttps://baike.baidu.com/item/%E7%BA%A2%E5%B1%B1
p82
aVhttps://baike.baidu.com/item/%E5%9C%9F%E5%B0%94%E6%89%88%E7%89%B9%E9%83%A8
p83
aVhttps://baike.baidu.com/item/%E5%8D%9A%E6%A0%BC%E8%BE%BE%E5%B1%B1/57075
p84
aVhttps://baike.baidu.com/item/%E7%99%BD%E6%A6%86
p85
aVhttps://baike.baidu.com/item/%E5%8D%97%E4%BA%AC%E5%B8%82
p86
aVhttps://baike.baidu.com/item/%E7%A9%BA%E5%86%9B%E4%B9%8C%E9%B2%81%E6%9C%A8%E9%BD%90%E5%8C%BB%E9%99%A2
p87
aVhttps://baike.baidu.com/item/%E6%98%9F%E7%BA%A7%E9%85%92%E5%BA%97
p88
aVhttps://baike.baidu.com/item/%E6%8B%9B%E5%95%86%E9%93%B6%E8%A1%8C
p89
aVhttps://baike.baidu.com/item/%E5%9B%BD%E5%AE%B6%E9%AB%98%E9%80%9F%E5%85%AC%E8%B7%AF%E7%BD%91
p90
aVhttps://baike.baidu.com/item/%E4%B8%AD%E5%8E%9F%E5%AE%98%E8%AF%9D
p91
aVhttps://baike.baidu.com/item/%E7%8E%8B%E6%99%AF%E6%98%A5
p92
aVhttps://baike.baidu.com/item/%E6%96%B0%E7%96%86%E5%BB%BA%E8%AE%BE%E8%81%8C%E4%B8%9A%E6%8A%80%E6%9C%AF%E5%AD%A6%E9%99%A2
p93
aVhttps://baike.baidu.com/item/%E5%BA%B7%E5%B8%88%E5%82%85
p94
aVhttps://baike.baidu.com/item/%E5%96%87%E5%8F%AD%E5%8F%A3
p95
aVhttps://baike.baidu.com/item/%E9%98%BF%E5%85%8B%E8%8B%8F%E4%B9%A1
p96
aVhttps://baike.baidu.com/item/%E6%9C%AC%E5%85%AE
p97
aVhttps://baike.baidu.com/item/%E5%8A%B3%E5%8A%A8%E8%A1%97
p98
aVhttps://baike.baidu.com/item/%E6%AE%B5%E5%A5%95%E5%AE%8F
p99
aVhttps://baike.baidu.com/item/%E5%8F%A4%E5%8A%9B%E5%A8%9C%E6%89%8E
p100
aVhttps://baike.baidu.com/item/%E5%A4%A9%E5%B1%B1%E5%86%9C%E5%95%86%E9%93%B6%E8%A1%8C
p101
aVhttps://baike.baidu.com/item/%E4%B9%8C%E9%B2%81%E6%9C%A8%E9%BD%90%E9%93%81%E8%B7%AF%E5%B1%80
p102
aVhttps://baike.baidu.com/item/%E5%95%86%E5%93%81%E4%BA%A4%E6%98%93%E5%B8%82%E5%9C%BA
p103
aVhttps://baike.baidu.com/item/%E6%96%B0%E7%96%86
p104
aVhttps://baike.baidu.com/item/%E5%8D%97%E5%B1%B1%E8%A5%BF%E7%99%BD%E6%9D%A8%E6%B2%9F
p105
aVhttps://baike.baidu.com/item/%E4%B9%8C%E9%B2%81%E6%9C%A8%E9%BD%90%E5%B8%82%E5%AE%9E%E9%AA%8C%E5%AD%A6%E6%A0%A1
p106
aVhttps://baike.baidu.com/item/%E5%A4%A9%E5%B1%B1%E6%A1%A6
p107
aVhttps://baike.baidu.com/item/%E6%96%B0%E7%96%86%E6%B0%91%E8%A1%97
p108
aVhttps://baike.baidu.com/item/%E5%90%B4%E5%8D%9A%E5%BD%A6
p109
aVhttps://baike.baidu.com/item/%E9%99%95%E8%A5%BF%E5%A4%A7%E5%AF%BA
p110
aVhttps://baike.baidu.com/item/%E6%96%B0%E7%96%86%E8%87%AA%E6%B2%BB%E5%8C%BA%E8%82%BA%E7%A7%91%E5%8C%BB%E9%99%A2
p111
aVhttps://baike.baidu.com/item/%E5%8D%97%E7%96%86%E9%93%81%E8%B7%AF
p112
aVhttps://baike.baidu.com/item/%E7%8E%8B%E8%92%99/441
p113
aVhttps://baike.baidu.com/item/%E8%A5%BF%E6%96%B9%E6%96%87%E5%8C%96
p114
aVhttps://baike.baidu.com/item/%E8%8D%89%E6%9C%A8%E6%A8%A8
p115
aVhttps://baike.baidu.com/item/%E7%9F%B3%E8%B2%82
p116
aVhttps://baike.baidu.com/item/%E6%B4%9B%E9%98%B3%E5%B8%82
p117
aVhttps://baike.baidu.com/item/%E4%B8%AD%E5%9B%BD%E5%8D%97%E6%96%B9%E8%88%AA%E7%A9%BA
p118
aVhttps://baike.baidu.com/item/%E5%8A%AA%E5%B0%94%C2%B7%E7%99%BD%E5%85%8B%E5%8A%9B
p119
aVhttps://baike.baidu.com/item/%E8%B7%B3%E9%BC%A0
p120
aVhttps://baike.baidu.com/item/%E4%B9%8C%E9%B2%81%E6%9C%A8%E9%BD%90%E5%B8%82%E7%AC%AC%E4%B8%83%E5%8D%81%E4%B8%AD%E5%AD%A6
p121
aVhttps://baike.baidu.com/item/%E4%BA%94%E5%AE%B6%E6%B8%A0
p122
aVhttps://baike.baidu.com/item/%E4%B9%8C%E9%B2%81%E6%9C%A8%E9%BD%90%E5%B8%82%E7%AC%AC%E5%8D%81%E4%B8%80%E4%B8%AD%E5%AD%A6
p123
aVhttps://baike.baidu.com/item/SK
p124
aVhttps://baike.baidu.com/item/%E5%85%A8%E5%9B%BD%E5%8F%8C%E6%8B%A5%E6%A8%A1%E8%8C%83%E5%9F%8E%E5%B8%82
p125
aVhttps://baike.baidu.com/item/%E9%AB%98%E5%B1%B1%E9%9B%AA%E9%B8%A1
p126
aVhttps://baike.baidu.com/item/%E5%AF%86%E5%8F%B6%E6%9D%A8
p127
aVhttps://baike.baidu.com/item/%E4%B9%8C%E9%B2%81%E6%9C%A8%E9%BD%90/18731632#viewPageContent
p128
aVhttps://baike.baidu.com/item/%E6%96%B0%E7%96%86%E8%B4%A2%E7%BB%8F%E5%A4%A7%E5%AD%A6
p129
aVhttps://baike.baidu.com/item/%E6%96%B0%E7%96%86%E8%B4%A2%E7%BB%8F%E5%A4%A7%E5%AD%A6%E5%95%86%E5%8A%A1%E5%AD%A6%E9%99%A2
p130
aVhttps://baike.baidu.com/item/%E4%B8%9D%E7%BB%B8%E4%B9%8B%E8%B7%AF%E5%9B%BD%E9%99%85%E6%BB%91%E9%9B%AA%E5%9C%BA
p131
aVhttps://baike.baidu.com/item/%E5%B7%B4%E6%A3%AE
p132
aVhttps://baike.baidu.com/item/%E8%96%84%E7%9A%AE%E5%8C%85%E5%AD%90
p133
aVhttps://baike.baidu.com/item/%E6%96%87%E5%8C%96/23624
p134
aVhttps://baike.baidu.com/item/%E8%9C%9C%E6%BA%90%E6%A4%8D%E7%89%A9
p135
aVhttps://baike.baidu.com/item/%E4%BC%8F%E5%B0%94%E5%8A%A0%E6%B2%B3
p136
aVhttps://baike.baidu.com/item/%E5%85%B5%E5%9B%A2%E4%B8%80%E4%B8%AD
p137
aVhttps://baike.baidu.com/item/%E4%B8%AD%E5%A4%A9%E5%B9%BF%E5%9C%BA
p138
aVhttps://baike.baidu.com/item/%E6%B2%99%E7%8B%90
p139
aVhttps://baike.baidu.com/item/%E5%88%98%E4%B8%BD%E5%A8%9C
p140
aVhttps://baike.baidu.com/item/%E6%98%86%E6%98%8E%E9%95%BF%E6%B0%B4%E5%9B%BD%E9%99%85%E6%9C%BA%E5%9C%BA
p141
aVhttps://baike.baidu.com/item/%E8%BF%AA%E4%B8%BD%E7%83%AD%E5%B7%B4
p142
aVhttps://baike.baidu.com/item/%E6%B0%B4%E7%A3%A8%E6%B2%9F
p143
aVhttps://baike.baidu.com/item/%E5%BC%A0%E6%96%87%E8%83%9C/51481
p144
aVhttps://baike.baidu.com/item/%E5%85%B0%E9%93%B6%E5%AE%98%E8%AF%9D
p145
aVhttps://baike.baidu.com/item/%E4%B9%8C%E9%B2%81%E6%9C%A8%E9%BD%90%E5%B8%82%E7%AC%AC%E5%8D%81%E4%B9%9D%E4%B8%AD%E5%AD%A6
p146
aVhttps://baike.baidu.com/item/%E5%85%A8%E5%9B%BD%E5%86%AC%E5%AD%A3%E8%BF%90%E5%8A%A8%E4%BC%9A
p147
aVhttps://baike.baidu.com/item/%E6%B1%89%E4%B8%AD%E5%B8%82
p148
aVhttps://baike.baidu.com/item/%E6%9D%8E%E4%BA%9A%E7%BA%A2
p149
aVhttps://baike.baidu.com/item/%E5%A5%A5%E4%BB%80
p150
aVhttps://baike.baidu.com/item/%E5%85%B4%E4%B8%9A%E9%93%B6%E8%A1%8C
p151
aVhttps://baike.baidu.com/item/%E5%B8%8C%E5%B0%94%E6%89%8E%E6%8F%90%C2%B7%E5%B7%B4%E5%90%BE%E4%B8%9C
p152
aVhttps://baike.baidu.com/item/%E9%B2%81%E6%97%AD%E5%B9%B3
p153
aVhttps://baike.baidu.com/item/%E6%9D%8E%E6%89%BF%E9%B9%8F
p154
aVhttps://baike.baidu.com/item/%E7%8E%89%E9%97%A8
p155
aVhttps://baike.baidu.com/item/%E8%92%8B%E6%AC%A3
p156
aVhttps://baike.baidu.com/item/%E4%B9%8C%E9%B2%81%E6%9C%A8%E9%BD%90?force=1
p157
aVhttps://baike.baidu.com/item/%E4%B9%8C%E9%B2%81%E6%9C%A8%E9%BD%90%E5%8D%97%E7%AB%99
p158
aVhttps://baike.baidu.com/item/%E5%B9%BF%E5%85%83%E5%B8%82
p159
aVhttps://baike.baidu.com/item/%E5%85%B5%E5%9B%A2%E4%BA%8C%E4%B8%AD
p160
aVhttps://baike.baidu.com/item/%E5%87%86%E5%99%B6%E5%B0%94%E6%B1%97%E5%9B%BD
p161
aVhttps://baike.baidu.com/item/%E5%A4%A7%E5%AE%87/2807620
p162
aVhttps://baike.baidu.com/item/%E6%B3%89%E5%B7%9E%E5%B8%82
p163
aVhttps://baike.baidu.com/item/%E5%BE%B7%E9%98%B3%E5%B8%82
p164
aVhttps://baike.baidu.com/item/%E7%81%B0%E9%9B%81
p165
aVhttps://baike.baidu.com/item/%E4%BA%9A%E5%BF%83
p166
aVhttps://baike.baidu.com/item/%E9%B9%BF%E8%8C%B8
p167
aVhttps://baike.baidu.com/item/%E6%96%B0%E7%9F%B3%E5%99%A8%E6%97%B6%E6%9C%9F
p168
aVhttps://baike.baidu.com/item/%E6%96%B0%E7%96%86%E7%94%B5%E8%A7%86%E5%8F%B0
p169
aVhttps://baike.baidu.com/item/%E7%AC%AC%E4%BA%8C%E4%BA%9A%E6%AC%A7%E5%A4%A7%E9%99%86%E6%A1%A5
p170
aVhttps://baike.baidu.com/item/%E9%99%88%E5%BB%BA%E6%96%8C
p171
aVhttps://baike.baidu.com/item/%E6%AF%94%E4%BB%80%E5%87%AF%E5%85%8B%E5%B8%82
p172
aVhttps://baike.baidu.com/item/%E5%92%8C%E7%94%B0%E5%9C%B0%E6%AF%AF
p173
aVhttps://baike.baidu.com/item/%E5%9B%BD%E5%8A%A1%E9%99%A2/343590
p174
aVhttps://baike.baidu.com/item/%E4%BA%9A%E6%AC%A7%E5%85%89%E7%BC%86
p175
aVhttps://baike.baidu.com/item/%E5%9F%8E%E5%B8%82%E5%90%8D%E7%89%87
p176
aVhttps://baike.baidu.com/item/%E5%85%8B%E6%8B%89%E7%8E%9B%E4%BE%9D
p177
aVhttps://baike.baidu.com/item/%E5%A5%A5%E6%96%AF%E6%9B%BC%E8%8D%89
p178
aVhttps://baike.baidu.com/item/%E4%BE%9D%E5%85%8B%E6%A1%91
p179
aVhttps://baike.baidu.com/item/%E4%B9%8C%E9%B2%81%E6%9C%A8%E9%BD%90%E5%B8%82%E9%AB%98%E7%BA%A7%E4%B8%AD%E5%AD%A6
p180
aVhttps://baike.baidu.com/item/%E6%96%B0%E7%96%86%E5%8C%BB%E7%A7%91%E5%A4%A7%E5%AD%A6%E9%99%84%E5%B1%9E%E8%82%BF%E7%98%A4%E5%8C%BB%E9%99%A2
p181
aVhttps://baike.baidu.com/item/%E4%B9%8C%E9%B2%81%E6%9C%A8%E9%BD%90%E5%AF%B9%E5%A4%96%E7%BB%8F%E6%B5%8E%E8%B4%B8%E6%98%93%E6%B4%BD%E8%B0%88%E4%BC%9A
p182
aVhttps://baike.baidu.com/item/%E8%89%BE%E5%B0%94%E8%82%AF
p183
aVhttps://baike.baidu.com/item/%E6%96%B0%E7%96%86%E7%BD%91
p184
aVhttps://baike.baidu.com/item/%E5%8A%A0%E6%B5%8E%E5%AE%89%E6%B3%B0%E6%99%AE
p185
aVhttps://baike.baidu.com/item/%E8%A5%BF%E9%97%A8%E5%AD%90/25878
p186
aVhttps://baike.baidu.com/item/%E4%B8%AD%E5%9B%BD%E6%96%B0%E5%85%B4%E5%9F%8E%E5%B8%8250%E5%BC%BA
p187
aVhttps://baike.baidu.com/item/%E6%96%B0%E7%96%86%E7%94%9F%E4%BA%A7%E5%BB%BA%E8%AE%BE%E5%85%B5%E5%9B%A2%E6%80%BB%E5%8C%BB%E9%99%A2
p188
aVhttps://baike.baidu.com/item/%E5%B8%83%E9%A1%BF%E5%A4%A7%E9%BA%A6
p189
aVhttps://baike.baidu.com/item/%E7%BA%A2%E5%B1%B1/8685283
p190
aVhttps://baike.baidu.com/item/%E8%B4%9E%E8%A7%82/3695091
p191
aVhttps://baike.baidu.com/item/%E6%B0%B4%E7%A3%A8%E6%B2%9F%E5%90%8D%E8%83%9C%E9%A3%8E%E6%99%AF%E5%8C%BA
p192
aVhttps://baike.baidu.com/item/%E7%8E%8B%E6%98%8E%E5%B1%B1/8899216
p193
aVhttps://baike.baidu.com/item/%E8%BE%BD%E6%BA%90%E5%B8%82
p194
aVhttps://baike.baidu.com/item/%E5%A4%A9%E5%B1%B1%E5%A4%A9%E6%B1%A0
p195
aVhttps://baike.baidu.com/item/%E5%AD%99%E4%B8%BA%E6%B0%91
p196
aVhttps://baike.baidu.com/item/%E7%AC%AC%E5%85%AD%E6%AC%A1%E4%BA%BA%E5%8F%A3%E6%99%AE%E6%9F%A5
p197
aVhttps://baike.baidu.com/item/%E4%B8%AD%E5%9B%BD%E7%BB%8F%E6%B5%8E%E7%94%9F%E6%B4%BB%E5%A4%A7%E8%B0%83%E6%9F%A5
p198
aVhttps://baike.baidu.com/item/%E6%B5%A6%E5%8F%91%E9%93%B6%E8%A1%8C
p199
aVhttps://baike.baidu.com/item/%E5%B7%B4%E7%94%9F/6617182
p200
aVhttps://baike.baidu.com/item/%E6%B1%89%E8%8E%8E%E8%88%AA%E7%A9%BA
p201
aVhttps://baike.baidu.com/item/%E4%B9%8C%E6%8B%89%E6%B3%8A%E8%A1%97%E9%81%93
p202
aVhttps://baike.baidu.com/item/%E5%98%89%E9%87%8C%E5%A4%A7%E9%80%9A
p203
aVhttps://baike.baidu.com/item/%E4%B9%BE%E9%9A%86/129924
p204
aVhttps://baike.baidu.com/item/%E7%A7%91%E6%95%99
p205
aVhttps://baike.baidu.com/item/%E5%B7%B4%E7%BB%9F%E5%B8%82
p206
aVhttps://baike.baidu.com/item/%E7%8E%8B%E6%B5%A9%E4%BF%A1
p207
aVhttps://baike.baidu.com/item/%E4%B8%AD%E5%9B%BD%E6%B0%91%E8%88%AA
p208
aVhttps://baike.baidu.com/item/%E7%83%AD%E5%A8%9C%E9%98%BF%E5%B8%83%E9%83%BD%E5%85%8B%E5%8A%9B%E6%9C%A8
p209
aVhttps://baike.baidu.com/item/%E4%B8%AD%E5%9B%BD%E4%BA%BA%E6%B0%91%E8%A7%A3%E6%94%BE%E5%86%9B%E8%A5%BF%E9%83%A8%E6%88%98%E5%8C%BA
p210
aVhttps://baike.baidu.com/item/%E6%B0%B4%E6%B5%87%E5%9C%B0
p211
aVhttps://baike.baidu.com/item/%E6%98%93%E4%B8%AD%E5%A4%A9
p212
aVhttps://baike.baidu.com/item/%E9%82%B1%E6%A0%91%E5%8D%8E/17662470
p213
aVhttps://baike.baidu.com/item/%E4%BC%8A%E5%8A%9B%E5%93%88%E6%9C%A8%C2%B7%E6%B2%99%E6%AF%94%E5%B0%94
p214
aVhttps://baike.baidu.com/item/%E5%B7%B4%E5%93%88%E5%8F%A4%E4%B8%BD%C2%B7%E7%83%AD%E5%90%88%E6%9C%A8%E5%90%90%E6%8B%89
p215
aVhttps://baike.baidu.com/item/%E5%8C%97%E4%BA%AC%E9%93%B6%E8%A1%8C
p216
aVhttps://baike.baidu.com/item/%E7%8E%89%E7%B1%B3%E6%8F%90
p217
aVhttps://baike.baidu.com/item/%E9%A9%AC%E9%B9%BF
p218
aVhttps://baike.baidu.com/item/%E6%98%8C%E5%90%89
p219
aVhttps://baike.baidu.com/item/%E6%B2%99%E9%BC%A0
p220
aVhttps://baike.baidu.com/item/%E5%A4%A9%E5%B1%B1
p221
aVhttps://baike.baidu.com/item/%E5%9F%8E%E9%99%85%E9%93%81%E8%B7%AF
p222
aVhttps://baike.baidu.com/item/%E9%87%91%E9%98%B3%E5%B0%8F%E5%8C%BA
p223
aVhttps://baike.baidu.com/item/%E9%A9%AC%E7%B4%AF
p224
aVhttps://baike.baidu.com/item/%E4%BF%84%E7%BD%97%E6%96%AF%E6%97%8F
p225
aVhttps://baike.baidu.com/item/%E4%B8%83%E5%BD%A9%E6%98%9F%E9%9F%B5%E6%96%87%E5%8C%96%E4%BC%A0%E5%AA%92
p226
aVhttps://baike.baidu.com/item/%E5%85%8B%E9%87%8C%E6%9C%A8
p227
aVhttps://baike.baidu.com/item/%E6%98%8E%E6%96%AF%E5%85%8B/13839168
p228
aVhttps://baike.baidu.com/item/%E5%9C%B0%E7%BA%A7%E5%B8%82
p229
aVhttps://baike.baidu.com/item/%E6%89%8B%E6%8A%93%E7%BE%8A%E8%82%89
p230
aVhttps://baike.baidu.com/item/%E7%83%A4%E5%8C%85%E5%AD%90
p231
aVhttps://baike.baidu.com/item/%E6%9E%97%E4%B8%9A%E7%94%A8%E5%9C%B0%E9%9D%A2%E7%A7%AF
p232
aVhttps://baike.baidu.com/item/%E9%83%91%E5%B7%9E%E5%B8%82
p233
aVhttps://baike.baidu.com/item/%E4%B9%8C%E9%B2%81%E6%9C%A8%E9%BD%90%E8%81%8C%E4%B8%9A%E5%A4%A7%E5%AD%A6
p234
aVhttps://baike.baidu.com/item/%E6%B5%B7%E5%8D%97%E8%88%AA%E7%A9%BA
p235
aVhttps://baike.baidu.com/item/%E4%B8%AD%E5%9B%BD%E7%A7%91%E5%AD%A6%E9%99%A2%E6%96%B0%E7%96%86%E5%88%86%E9%99%A2
p236
aVhttps://baike.baidu.com/item/%E4%BA%9A%E6%B4%B2%E8%B7%B3%E4%BC%9E%E9%94%A6%E6%A0%87%E8%B5%9B
p237
aVhttps://baike.baidu.com/item/%E4%BA%A4%E9%80%9A/30183
p238
aVhttps://baike.baidu.com/item/%E5%86%B0%E5%B7%9D/118432
p239
aVhttps://baike.baidu.com/item/%E8%8B%97%E9%9F%B5%E6%A1%90
p240
aVhttps://baike.baidu.com/item/%E6%9D%8E%E5%AE%8F%E6%96%8C
p241
aVhttps://baike.baidu.com/item/%E9%9B%AA%E8%B1%B9/337
p242
aVhttps://baike.baidu.com/item/%E6%97%A0%E8%8A%B1%E6%9E%9C
p243
aVhttps://baike.baidu.com/item/%E6%9B%B9%E5%8D%AB%E5%AE%87
p244
aVhttps://baike.baidu.com/item/%E5%92%8C%E9%9D%99%E5%8E%BF
p245
aVhttps://baike.baidu.com/item/%E7%84%A6%E5%BB%BA%E6%88%90
p246
aVhttps://baike.baidu.com/item/%E5%86%B0%E8%8D%89
p247
aVhttps://baike.baidu.com/item/%E4%B9%8C%E9%B2%81%E6%9C%A8%E9%BD%90%E5%B8%82%E7%AC%AC%E5%85%AD%E5%8D%81%E5%85%AB%E4%B8%AD%E5%AD%A6
p248
aVhttps://baike.baidu.com/item/%E5%BB%BA%E6%88%90%E5%8C%BA
p249
aVhttps://baike.baidu.com/item/%E5%90%BE%E5%AE%88%E5%B0%94%C2%B7%E6%96%AF%E6%8B%89%E6%9C%A8
p250
aVhttps://baike.baidu.com/item/%E4%B9%8C%E9%B2%81%E6%9C%A8%E9%BD%90%E5%B8%82%E7%AC%AC%E4%BA%94%E4%B8%AD%E5%AD%A6
p251
aVhttps://baike.baidu.com/item/%E5%92%8C%E7%A1%95%E7%89%B9%E9%83%A8
p252
aVhttps://baike.baidu.com/item/%E5%85%AB%E8%B7%AF%E5%86%9B%E9%A9%BB%E6%96%B0%E7%96%86%E5%8A%9E%E4%BA%8B%E5%A4%84%E7%BA%AA%E5%BF%B5%E9%A6%86
p253
aVhttps://baike.baidu.com/item/%E7%BB%BF%E6%B4%B2/18453
p254
aVhttps://baike.baidu.com/item/%E7%83%A4%E9%A6%95
p255
aVhttps://baike.baidu.com/item/%E9%95%BF%E6%98%A5%E5%B8%82
p256
aVhttps://baike.baidu.com/item/%E5%AE%89%E5%A1%94%E5%88%A9%E4%BA%9A
p257
aVhttps://baike.baidu.com/item/%E6%B8%A9%E5%B8%A6%E5%A4%A7%E9%99%86%E6%80%A7%E5%B9%B2%E6%97%B1%E6%B0%94%E5%80%99
p258
aVhttps://baike.baidu.com/item/%E7%9B%B4%E9%9A%B6%E5%B7%9E
p259
aVhttps://baike.baidu.com/item/%E5%BB%BA%E8%AE%BE%E9%93%B6%E8%A1%8C
p260
aVhttps://baike.baidu.com/item/%E6%9D%8E%E4%BD%B3%E6%98%8E
p261
aVhttps://baike.baidu.com/item/%E8%A1%8C%E7%9C%81
p262
aVhttps://baike.baidu.com/item/%E5%BA%AD%E5%B7%9E
p263
aVhttps://baike.baidu.com/item/%E5%B2%91%E5%8F%82
p264
aVhttps://baike.baidu.com/item/%E5%A4%A7%E4%BD%9B%E5%AF%BA/10765224
p265
aVhttps://baike.baidu.com/item/%E9%98%BF%E6%96%AF%E5%A1%94%E7%BA%B3%E5%B8%82
p266
aVhttps://baike.baidu.com/item/%E6%9D%8E%E5%85%89%E8%BE%89/2612686
p267
aVhttps://baike.baidu.com/item/%E8%BE%BE%E5%9D%82%E5%9F%8E
p268
aVhttps://baike.baidu.com/item/%E4%BC%8A%E5%8A%9B%E7%89%B9%E6%9B%B2
p269
aVhttps://baike.baidu.com/item/%E6%B0%B4%E8%B5%84%E6%BA%90
p270
aVhttps://baike.baidu.com/item/%E4%B9%8C%E8%A5%BF%E7%AB%99
p271
aVhttps://baike.baidu.com/item/%E5%9B%BA%E5%A7%8B%E6%B1%97
p272
aVhttps://baike.baidu.com/item/%E4%B9%8C%E9%B2%81%E6%9C%A8%E9%BD%90%E5%B8%82%E7%AC%AC%E5%85%AD%E5%8D%81%E4%B9%9D%E4%B8%AD%E5%AD%A6
p273
aVhttps://baike.baidu.com/item/%E5%BC%80%E5%B0%81%E5%B8%82
p274
aVhttps://baike.baidu.com/item/%E6%B0%91%E7%94%9F%E9%93%B6%E8%A1%8C
p275
aVhttps://baike.baidu.com/item/%E4%BA%8C%E9%81%93%E6%A1%A5
p276
aVhttps://baike.baidu.com/item/%E6%96%B0%E7%96%86%E5%9C%B0%E8%B4%A8%E7%9F%BF%E4%BA%A7%E9%99%88%E5%88%97%E9%A6%86
p277
aVhttps://baike.baidu.com/item/%E8%A5%BF%E5%9F%9F%E9%83%BD%E6%8A%A4%E5%BA%9C
p278
aVhttps://baike.baidu.com/item/%E6%96%B0%E7%96%86%E8%89%BA%E6%9C%AF%E5%AD%A6%E9%99%A2
p279
aVhttps://baike.baidu.com/item/%E5%93%88%E9%82%A3%E6%8F%90%C2%B7%E6%96%AF%E6%8B%89%E6%9C%A8
p280
aVhttps://baike.baidu.com/item/%E6%96%B0%E7%96%86%E4%BA%BA%E6%B0%91%E5%B9%BF%E6%92%AD%E7%94%B5%E5%8F%B0
p281
aVhttps://baike.baidu.com/item/%E5%9C%B0%E6%96%B9%E8%B4%A2%E6%94%BF%E6%94%B6%E5%85%A5
p282
aVhttps://baike.baidu.com/item/%E4%B8%AD%E5%8D%8E%E4%BA%BA%E6%B0%91%E5%85%B1%E5%92%8C%E5%9B%BD%E7%AC%AC%E5%8D%81%E4%B8%89%E5%B1%8A%E5%86%AC%E5%AD%A3%E8%BF%90%E5%8A%A8%E4%BC%9A
p283
aVhttps://baike.baidu.com/item/%E5%9B%BD%E5%AE%B6%E8%8A%82%E6%B0%B4%E5%9E%8B%E5%9F%8E%E5%B8%82
p284
aVhttps://baike.baidu.com/item/%E4%B9%8C%E9%B2%81%E6%9C%A8%E9%BD%90%E8%BD%A8%E9%81%93%E4%BA%A4%E9%80%9A
p285
aVhttps://baike.baidu.com/item/%E6%96%B0%E5%94%90%E4%B9%A6
p286
aVhttps://baike.baidu.com/item/%E6%9D%8E%E4%BA%9A%E9%B9%8F
p287
aVhttps://baike.baidu.com/item/%E5%9B%BD%E5%AE%B6%E4%BD%93%E8%82%B2%E6%80%BB%E5%B1%80
p288
aVhttps://baike.baidu.com/item/%E4%B9%8C%E9%B2%81%E6%9C%A8%E9%BD%90%E7%94%B5%E8%A7%86%E5%8F%B0
p289
aVhttps://baike.baidu.com/item/%E6%AC%A7%E4%BA%9A
p290
aVhttps://baike.baidu.com/item/%E9%84%82%E6%9C%A8%E6%96%AF%E5%85%8B/1366513
p291
aVhttps://baike.baidu.com/item/%E9%9D%92%E8%97%8F%E9%AB%98%E5%8E%9F/849
p292
aVhttps://baike.baidu.com/item/%E7%99%BD%E6%9D%A8%E6%B2%B3
p293
aVhttps://baike.baidu.com/item/%E5%BE%90%E4%BD%B3
p294
aVhttps://baike.baidu.com/item/%E5%98%89%E5%A3%AB%E4%BC%AF
p295
aVhttps://baike.baidu.com/item/%E4%B9%8C%E9%B2%81%E6%9C%A8%E9%BD%90/13873818#viewPageContent
p296
aVhttps://baike.baidu.com/item/%E4%B9%8C%E9%B2%81%E6%9C%A8%E9%BD%90%E5%B8%82%E7%AC%AC%E4%BA%8C%E5%8D%81%E4%B8%AD%E5%AD%A6
p297
aVhttps://baike.baidu.com/item/%E8%A5%BF%E5%AE%81/37036
p298
aVhttps://baike.baidu.com/item/%E7%B1%B3%E4%B8%9C%E5%8C%BA
p299
aVhttps://baike.baidu.com/item/%E4%B8%AD%E4%BF%A1%E9%93%B6%E8%A1%8C
p300
aVhttps://baike.baidu.com/item/%E9%99%86%E5%B7%9D
p301
aVhttps://baike.baidu.com/item/%E4%B8%AD%E5%9B%BD%E7%A7%91%E5%AD%A6%E9%99%A2%E6%96%B0%E7%96%86%E7%94%9F%E6%80%81%E4%B8%8E%E5%9C%B0%E7%90%86%E7%A0%94%E7%A9%B6%E6%89%80
p302
aVhttps://baike.baidu.com/item/%E5%8D%97%E6%B9%96%E5%B0%8F%E5%8C%BA
p303
aVhttps://baike.baidu.com/item/%E5%A4%9A%E4%BA%AE
p304
aVhttps://baike.baidu.com/item/%E4%B8%89%E5%8F%B6%E8%8D%89
p305
aVhttps://baike.baidu.com/item/%E6%96%B0%E7%96%86%E6%95%99%E8%82%B2%E5%AD%A6%E9%99%A2
p306
aVhttps://baike.baidu.com/item/%E6%B8%A9%E5%B8%A6%E5%A4%A7%E9%99%86%E6%80%A7%E6%B0%94%E5%80%99
p307
aVhttps://baike.baidu.com/item/%E8%BE%BE%E5%9D%82%E5%9F%8E%E9%95%87
p308
aVhttps://baike.baidu.com/item/%E6%8A%B9%E9%BB%91%E8%8A%82
p309
aVhttps://baike.baidu.com/item/%E7%8E%8B%E5%AE%B6%E6%A2%81
p310
aVhttps://baike.baidu.com/item/%E4%B9%8C%E9%B2%81%E6%9C%A8%E9%BD%90%E5%B8%82%E7%AC%AC%E5%85%AB%E4%B8%AD%E5%AD%A6
p311
aVhttps://baike.baidu.com/item/%E4%B9%8C%E5%B1%B1%E5%B8%82
p312
aVhttps://baike.baidu.com/item/%E5%A4%B4%E5%B1%AF%E6%B2%B3
p313
aVhttps://baike.baidu.com/item/%E4%BA%9A%E6%AC%A7%E5%A4%A7%E9%99%86
p314
atRp315
.